Certificate:
    Data:
        Version: 3 (0x2)
        Serial Number: 1 (0x1)
        Signature Algorithm: sha256WithRSAEncryption
        Issuer: CN=Root CA, O=Development VM, C=FR
        Validity
            Not Before: Oct  3 18:46:42 2016 GMT
            Not After : Oct  3 18:46:42 2019 GMT
        Subject: C=FR, O=Development VM, CN=www.example.com
        Subject Public Key Info:
            Public Key Algorithm: rsaEncryption
            RSA Public Key: (2048 bit)
                Modulus (2048 bit):
                    00:cb:ee:7d:9e:5a:e6:bc:f0:27:0b:67:ea:67:c1:
                    4f:36:ce:51:0e:56:6b:ab:7d:43:c6:b7:88:ac:bc:
                    65:b5:0b:5f:22:fe:3c:77:27:53:54:3e:22:03:59:
                    a9:68:e9:ea:85:83:6f:2e:bb:1f:90:06:f3:33:b9:
                    df:b5:67:43:a1:5c:5d:4e:28:95:9c:c4:89:ae:50:
                    fe:a0:9e:cb:35:3b:2e:40:28:31:20:89:4e:f2:0e:
                    01:99:e2:cf:a2:b0:b9:ea:ec:6e:a8:90:8e:c8:c5:
                    88:d4:4a:9e:de:dd:8a:43:3d:7d:9e:25:1d:0c:d5:
                    85:e4:19:c1:f9:5c:c3:3b:88:97:87:c2:42:54:fc:
                    1e:2a:51:bc:8c:9c:58:b3:9a:53:b5:82:9e:03:26:
                    ba:a6:ac:85:a8:5a:9a:10:a5:70:8f:a2:2d:b7:a2:
                    11:fe:be:05:45:6d:ed:17:e3:7d:3c:2e:f5:bd:85:
                    f1:ea:c1:55:e5:dd:20:93:4e:dc:13:10:0f:e4:2d:
                    0f:4f:2a:0a:c5:38:ad:09:c7:fb:17:65:fa:18:dd:
                    54:ef:86:67:96:ff:2f:45:79:b5:f1:1d:c1:53:1e:
                    7f:69:d4:d5:d8:93:52:79:7d:d0:79:8d:a7:c3:e7:
                    97:ce:e9:36:1a:32:fe:fc:18:4e:96:4c:e9:ce:eb:
                    66:91
                Exponent: 65537 (0x10001)
        X509v3 extensions:
            X509v3 Subject Key Identifier: 
                51:2E:32:C6:48:CB:D4:41:6D:11:AE:9F:80:93:AB:C5:D5:48:0F:29
            X509v3 Authority Key Identifier: 
                keyid:D9:28:B9:3C:B3:43:08:E7:92:73:47:51:9E:F5:2C:CE:F8:DD:E1:64
                DirName:/CN=Root CA/O=Development VM/C=FR
                serial:00

            X509v3 Basic Constraints: critical
                CA:FALSE, pathlen:0
            X509v3 Key Usage: critical
                Digital Signature, Key Encipherment
            X509v3 Extended Key Usage: critical
                TLS Web Server Authentication
    Signature Algorithm: sha256WithRSAEncryption
        08:ce:4e:7f:16:ea:42:66:b5:c0:9b:45:c8:4b:6a:06:47:9b:
        b1:5c:09:81:c0:94:7d:82:3e:f3:be:e3:8d:82:9e:cd:9f:49:
        17:6e:72:27:4b:7d:18:79:7a:b1:78:b5:19:29:20:9b:2a:3c:
        fa:3b:af:23:c3:92:68:5e:9f:0f:c1:20:2a:18:15:5e:06:67:
        9a:bb:89:32:6f:7d:05:84:99:36:e9:08:28:24:be:f9:50:5b:
        22:1d:b4:d3:cb:25:e2:4e:72:0b:c6:15:fa:c7:ef:65:7d:76:
        f4:3e:c6:29:3d:7c:7e:f9:32:d0:ea:40:7d:07:1f:16:83:1e:
        3c:58:45:09:37:8a:c8:b7:65:95:1a:82:20:aa:62:bd:4f:9b:
        87:5d:fc:90:a6:82:9a:00:d3:a5:c5:d3:66:41:14:2e:be:82:
        79:bb:26:13:d8:0e:ef:e0:c2:76:fa:6c:91:57:f7:28:85:f5:
        84:7a:4f:57:03:37:f6:21:29:71:54:17:4b:5e:ba:0e:f3:d1:
        c0:19:91:a3:fb:d5:44:ab:73:49:77:6f:38:30:56:c0:0a:1c:
        cf:3a:e2:58:ef:23:53:4f:4a:3e:30:fd:90:0f:8b:4b:ee:88:
        b2:b6:07:53:18:32:ac:87:79:a3:30:43:c9:60:5f:13:20:01:
        71:7b:4a:95:6d:ce:e5:af:ac:bd:eb:45:56:15:45:65:50:47:
        7b:e8:43:bb:43:10:75:64:59:65:e8:90:80:9e:69:97:da:83:
        b1:c1:58:66:cc:e7:aa:97:26:e2:ac:61:28:f0:b5:ec:8e:35:
        68:3d:5e:f8:0d:61:85:5a:6c:e0:5a:ad:92:1a:47:86:bc:b4:
        56:5e:d2:f9:cf:bc:20:c8:9c:e9:78:ee:0f:c3:0a:20:1e:74:
        dc:81:23:8d:46:3e:b8:47:55:9d:2b:ec:1e:d9:06:42:eb:bc:
        e9:1f:25:f0:f5:e5:c1:81:15:54:a7:7d:7a:d9:29:73:b1:f6:
        3e:a2:75:64:a7:3f:1d:9a:6f:1d:2d:46:be:c5:8d:be:55:73:
        b8:28:c3:56:e1:86:cc:11:d3:26:eb:2e:03:68:df:63:05:49:
        9e:1f:f8:b2:35:b9:ed:bf:0f:1e:97:55:e6:30:37:5f:38:5e:
        17:3d:81:75:b3:af:42:9d:b2:9d:d8:6e:5d:d8:37:64:db:d3:
        35:c3:08:06:02:0d:4c:5a:ff:b1:2b:3c:af:02:bf:6e:5c:9b:
        aa:b9:cb:aa:b7:6a:df:60:a7:cc:3d:3b:36:ac:3c:df:32:da:
        17:bc:49:c0:54:ba:02:ef:55:4e:08:02:b0:ac:ee:ae:d1:e5:
        66:a5:ff:8d:ac:5c:0d:36
-----BEGIN CERTIFICATE-----
MIIEsTCCApmgAwIBAgIBATANBgkqhkiG9w0BAQsFADA4MRAwDgYDVQQDDAdSb290
IENBMRcwFQYDVQQKDA5EZXZlbG9wbWVudCBWTTELMAkGA1UEBhMCRlIwHhcNMTYx
MDAzMTg0NjQyWhcNMTkxMDAzMTg0NjQyWjBAMQswCQYDVQQGEwJGUjEXMBUGA1UE
CgwORGV2ZWxvcG1lbnQgVk0xGDAWBgNVBAMMD3d3dy5leGFtcGxlLmNvbTCCASIw
DQYJKoZIhvcNAQEBBQADggEPADCCAQoCggEBAMvufZ5a5rzwJwtn6mfBTzbOUQ5W
a6t9Q8a3iKy8ZbULXyL+PHcnU1Q+IgNZqWjp6oWDby67H5AG8zO537VnQ6FcXU4o
lZzEia5Q/qCeyzU7LkAoMSCJTvIOAZniz6KwuersbqiQjsjFiNRKnt7dikM9fZ4l
HQzVheQZwflcwzuIl4fCQlT8HipRvIycWLOaU7WCngMmuqashahamhClcI+iLbei
Ef6+BUVt7RfjfTwu9b2F8erBVeXdIJNO3BMQD+QtD08qCsU4rQnH+xdl+hjdVO+G
Z5b/L0V5tfEdwVMef2nU1diTUnl90HmNp8Pnl87pNhoy/vwYTpZM6c7rZpECAwEA
AaOBvTCBujAdBgNVHQ4EFgQUUS4yxkjL1EFtEa6fgJOrxdVIDykwYAYDVR0jBFkw
V4AU2Si5PLNDCOeSc0dRnvUszvjd4WShPKQ6MDgxEDAOBgNVBAMMB1Jvb3QgQ0Ex
FzAVBgNVBAoMDkRldmVsb3BtZW50IFZNMQswCQYDVQQGEwJGUoIBADAPBgNVHRMB
Af8EBTADAgEAMA4GA1UdDwEB/wQEAwIFoDAWBgNVHSUBAf8EDDAKBggrBgEFBQcD
ATANBgkqhkiG9w0BAQsFAAOCAgEACM5OfxbqQma1wJtFyEtqBkebsVwJgcCUfYI+
877jjYKezZ9JF25yJ0t9GHl6sXi1GSkgmyo8+juvI8OSaF6fD8EgKhgVXgZnmruJ
Mm99BYSZNukIKCS++VBbIh2008sl4k5yC8YV+sfvZX129D7GKT18fvky0OpAfQcf
FoMePFhFCTeKyLdllRqCIKpivU+bh138kKaCmgDTpcXTZkEULr6CebsmE9gO7+DC
dvpskVf3KIX1hHpPVwM39iEpcVQXS166DvPRwBmRo/vVRKtzSXdvODBWwAoczzri
WO8jU09KPjD9kA+LS+6IsrYHUxgyrId5ozBDyWBfEyABcXtKlW3O5a+svetFVhVF
ZVBHe+hDu0MQdWRZZeiQgJ5pl9qDscFYZsznqpcm4qxhKPC17I41aD1e+A1hhVps
4FqtkhpHhry0Vl7S+c+8IMic6XjuD8MKIB503IEjjUY+uEdVnSvsHtkGQuu86R8l
8PXlwYEVVKd9etkpc7H2PqJ1ZKc/HZpvHS1GvsWNvlVzuCjDVuGGzBHTJusuA2jf
YwVJnh/4sjW57b8PHpdV5jA3XzheFz2BdbOvQp2yndhuXdg3ZNvTNcMIBgINTFr/
sSs8rwK/blybqrnLqrdq32CnzD07Nqw83zLaF7xJwFS6Au9VTggCsKzurtHlZqX/
jaxcDTY=
-----END CERTIFICATE-----
